target datalayout = "e-m:e-p270:32:32-p271:32:32-p272:64:64-i64:64-i128:128-f80:128-n8:16:32:64-S128"
target triple = "x86_64-pc-linux-gnu"

%class.QPointF = type { double, double }
%class.QCursor = type { ptr }
%class.Handle = type { %class.QGraphicsObject, %class.QColor, i32, ptr }
%class.QGraphicsObject = type { %class.QObject, %class.QGraphicsItem }
%class.QObject = type { ptr, %class.QScopedPointer }
%class.QScopedPointer = type { ptr }
%class.QGraphicsItem = type { ptr, %class.QScopedPointer.4 }
%class.QScopedPointer.4 = type { ptr }
%class.QColor = type <{ i32, %"union.QColor::CT", [2 x i8] }>
%"union.QColor::CT" = type { %struct.anon }
%struct.anon = type { i16, i16, i16, i16, i16 }

@_ZTV6Handle = external unnamed_addr constant { [19 x ptr], [39 x ptr] }, align 8

; Function Attrs: mustprogress nounwind uwtable
define linkonce_odr void @_ZN6QColor2CTC2Ettttt(ptr noundef nonnull align 2 dereferenceable(10) %0, i16 noundef zeroext %1, i16 noundef zeroext %2, i16 noundef zeroext %3, i16 noundef zeroext %4, i16 noundef zeroext %5) unnamed_addr #2 comdat align 2 {
  %7 = alloca ptr, align 8
  %8 = alloca i16, align 2
  %9 = alloca i16, align 2
  %10 = alloca i16, align 2
  %11 = alloca i16, align 2
  %12 = alloca i16, align 2
  store ptr %0, ptr %7, align 8
  store i16 %1, ptr %8, align 2
  store i16 %2, ptr %9, align 2
  store i16 %3, ptr %10, align 2
  store i16 %4, ptr %11, align 2
  store i16 %5, ptr %12, align 2
  %13 = load ptr, ptr %7, align 8
  %14 = getelementptr inbounds [5 x i16], ptr %13, i64 0, i64 0
  %15 = load i16, ptr %8, align 2
  store i16 %15, ptr %14, align 2
  %16 = getelementptr inbounds i16, ptr %14, i64 1
  %17 = load i16, ptr %9, align 2
  store i16 %17, ptr %16, align 2
  %18 = getelementptr inbounds i16, ptr %16, i64 1
  %19 = load i16, ptr %10, align 2
  store i16 %19, ptr %18, align 2
  %20 = getelementptr inbounds i16, ptr %18, i64 1
  %21 = load i16, ptr %11, align 2
  store i16 %21, ptr %20, align 2
  %22 = getelementptr inbounds i16, ptr %20, i64 1
  %23 = load i16, ptr %12, align 2
  store i16 %23, ptr %22, align 2
  ret void
}

; Function Attrs: mustprogress nounwind uwtable
define linkonce_odr void @_ZN6QColorC2Ev(ptr noundef nonnull align 4 dereferenceable(14) %0) unnamed_addr #2 comdat align 2 {
  %2 = alloca ptr, align 8
  store ptr %0, ptr %2, align 8
  %3 = load ptr, ptr %2, align 8
  %4 = getelementptr inbounds %class.QColor, ptr %3, i32 0, i32 0
  store i32 0, ptr %4, align 4
  %5 = getelementptr inbounds %class.QColor, ptr %3, i32 0, i32 1
  call void @_ZN6QColor2CTC2Ettttt(ptr noundef nonnull align 2 dereferenceable(10) %5, i16 noundef zeroext -1, i16 noundef zeroext 0, i16 noundef zeroext 0, i16 noundef zeroext 0, i16 noundef zeroext 0) #7
  ret void
}

; Function Attrs: mustprogress uwtable
define void @_ZN6HandleC2EP10CHART_INFO6QColor7QPointFii(ptr noundef nonnull align 8 dereferenceable(64) %0, ptr noundef %1, ptr noundef %2, double %3, double %4, i32 noundef %5, i32 noundef %6) unnamed_addr #0 align 2 personality ptr @__gxx_personality_v0 {
  %8 = alloca %class.QPointF, align 8
  %9 = alloca ptr, align 8
  %10 = alloca ptr, align 8
  %11 = alloca ptr, align 8
  %12 = alloca i32, align 4
  %13 = alloca i32, align 4
  %14 = alloca ptr, align 8
  %15 = alloca i32, align 4
  %16 = alloca %class.QCursor, align 8
  %17 = getelementptr inbounds { double, double }, ptr %8, i32 0, i32 0
  store double %3, ptr %17, align 8
  %18 = getelementptr inbounds { double, double }, ptr %8, i32 0, i32 1
  store double %4, ptr %18, align 8
  store ptr %0, ptr %9, align 8
  store ptr %1, ptr %10, align 8
  store ptr %2, ptr %11, align 8
  store i32 %5, ptr %12, align 4
  store i32 %6, ptr %13, align 4
  %19 = load ptr, ptr %9, align 8
  call void @_ZN15QGraphicsObjectC2EP13QGraphicsItem(ptr noundef nonnull align 8 dereferenceable(32) %19, ptr noundef null)
  store ptr getelementptr inbounds ({ [19 x ptr], [39 x ptr] }, ptr @_ZTV6Handle, i32 0, i32 0, i32 2), ptr %19, align 8
  %20 = getelementptr inbounds i8, ptr %19, i64 16
  store ptr getelementptr inbounds ({ [19 x ptr], [39 x ptr] }, ptr @_ZTV6Handle, i32 0, i32 1, i32 2), ptr %20, align 8
  %21 = getelementptr inbounds %class.Handle, ptr %19, i32 0, i32 1
  call void @_ZN6QColorC2Ev(ptr noundef nonnull align 4 dereferenceable(14) %21) #7
  %22 = getelementptr inbounds %class.Handle, ptr %19, i32 0, i32 3
  %23 = load ptr, ptr %10, align 8
  store ptr %23, ptr %22, align 8
  %24 = getelementptr inbounds %class.Handle, ptr %19, i32 0, i32 1
  %25 = call noundef nonnull align 4 dereferenceable(14) ptr @_ZN6QColoraSERKS_(ptr noundef nonnull align 4 dereferenceable(14) %24, ptr noundef nonnull align 4 dereferenceable(14) %2) #7
  %26 = getelementptr inbounds i8, ptr %19, i64 16
  invoke void @_ZN13QGraphicsItem6setPosERK7QPointF(ptr noundef nonnull align 8 dereferenceable(16) %26, ptr noundef nonnull align 8 dereferenceable(16) %8)
          to label %27 unwind label %37

27:                                               ; preds = %7
  %28 = getelementptr inbounds i8, ptr %19, i64 16
  %29 = load i32, ptr %12, align 4
  %30 = sitofp i32 %29 to double
  invoke void @_ZN13QGraphicsItem9setZValueEd(ptr noundef nonnull align 8 dereferenceable(16) %28, double noundef %30)
          to label %31 unwind label %37

31:                                               ; preds = %27
  %32 = load i32, ptr %13, align 4
  %33 = getelementptr inbounds %class.Handle, ptr %19, i32 0, i32 2
  store i32 %32, ptr %33, align 8
  %34 = getelementptr inbounds i8, ptr %19, i64 16
  invoke void @_ZN7QCursorC1EN2Qt11CursorShapeE(ptr noundef nonnull align 8 dereferenceable(8) %16, i32 noundef 17)
          to label %35 unwind label %37

35:                                               ; preds = %31
  invoke void @_ZN13QGraphicsItem9setCursorERK7QCursor(ptr noundef nonnull align 8 dereferenceable(16) %34, ptr noundef nonnull align 8 dereferenceable(8) %16)
          to label %36 unwind label %41

36:                                               ; preds = %35
  call void @_ZN7QCursorD1Ev(ptr noundef nonnull align 8 dereferenceable(8) %16) #7
  ret void

37:                                               ; preds = %31, %27, %7
  %38 = landingpad { ptr, i32 }
          cleanup
  %39 = extractvalue { ptr, i32 } %38, 0
  store ptr %39, ptr %14, align 8
  %40 = extractvalue { ptr, i32 } %38, 1
  store i32 %40, ptr %15, align 4
  br label %45

41:                                               ; preds = %35
  %42 = landingpad { ptr, i32 }
          cleanup
  %43 = extractvalue { ptr, i32 } %42, 0
  store ptr %43, ptr %14, align 8
  %44 = extractvalue { ptr, i32 } %42, 1
  store i32 %44, ptr %15, align 4
  call void @_ZN7QCursorD1Ev(ptr noundef nonnull align 8 dereferenceable(8) %16) #7
  br label %45

45:                                               ; preds = %41, %37
  call void @_ZN15QGraphicsObjectD2Ev(ptr noundef nonnull align 8 dereferenceable(32) %19) #7
  br label %46

46:                                               ; preds = %45
  %47 = load ptr, ptr %14, align 8
  %48 = load i32, ptr %15, align 4
  %49 = insertvalue { ptr, i32 } poison, ptr %47, 0
  %50 = insertvalue { ptr, i32 } %49, i32 %48, 1
  resume { ptr, i32 } %50
}