; Function Attrs: mustprogress uwtable
define void @_ZN6HandleC2EP10CHART_INFO6QColor7QPointFii(ptr noundef nonnull align 8 dereferenceable(64) %0, ptr noundef %1, ptr noundef %2, double %3, double %4, i32 noundef %5, i32 noundef %6) unnamed_addr #0 align 2 personality ptr @__gxx_personality_v0 {
  %8 = alloca %class.QPointF, align 8
  %9 = alloca %class.QCursor, align 8
  store double %3, ptr %8, align 8
  %10 = getelementptr inbounds i8, ptr %8, i64 8
  store double %4, ptr %10, align 8
  tail call void @_ZN15QGraphicsObjectC2EP13QGraphicsItem(ptr noundef nonnull align 8 dereferenceable(32) %0, ptr noundef null)
  store ptr getelementptr inbounds ({ [19 x ptr], [39 x ptr] }, ptr @_ZTV6Handle, i64 0, i32 0, i64 2), ptr %0, align 8
  %11 = getelementptr inbounds i8, ptr %0, i64 16
  store ptr getelementptr inbounds ({ [19 x ptr], [39 x ptr] }, ptr @_ZTV6Handle, i64 0, i32 1, i64 2), ptr %11, align 8
  %12 = getelementptr inbounds i8, ptr %0, i64 32
  store i32 0, ptr %12, align 8
  %13 = getelementptr inbounds i8, ptr %0, i64 36
  store i16 -1, ptr %13, align 4
  %14 = getelementptr inbounds i8, ptr %0, i64 38
  store i64 0, ptr %14, align 2
  %15 = getelementptr inbounds i8, ptr %0, i64 56
  store ptr %1, ptr %15, align 8
  %16 = tail call noundef nonnull align 4 dereferenceable(14) ptr @_ZN6QColoraSERKS_(ptr noundef nonnull align 4 dereferenceable(14) %12, ptr noundef nonnull align 4 dereferenceable(14) %2) #13
  invoke void @_ZN13QGraphicsItem6setPosERK7QPointF(ptr noundef nonnull align 8 dereferenceable(16) %11, ptr noundef nonnull align 8 dereferenceable(16) %8)
          to label %17 unwind label %23

17:                                               ; preds = %7
  %18 = sitofp i32 %5 to double
  invoke void @_ZN13QGraphicsItem9setZValueEd(ptr noundef nonnull align 8 dereferenceable(16) %11, double noundef %18)
          to label %19 unwind label %23

19:                                               ; preds = %17
  %20 = getelementptr inbounds i8, ptr %0, i64 48
  store i32 %6, ptr %20, align 8
  invoke void @_ZN7QCursorC1EN2Qt11CursorShapeE(ptr noundef nonnull align 8 dereferenceable(8) %9, i32 noundef 17)
          to label %21 unwind label %23

21:                                               ; preds = %19
  invoke void @_ZN13QGraphicsItem9setCursorERK7QCursor(ptr noundef nonnull align 8 dereferenceable(16) %11, ptr noundef nonnull align 8 dereferenceable(8) %9)
          to label %22 unwind label %25

22:                                               ; preds = %21
  call void @_ZN7QCursorD1Ev(ptr noundef nonnull align 8 dereferenceable(8) %9) #13
  ret void

23:                                               ; preds = %19, %17, %7
  %24 = landingpad { ptr, i32 }
          cleanup
  br label %27

25:                                               ; preds = %21
  %26 = landingpad { ptr, i32 }
          cleanup
  call void @_ZN7QCursorD1Ev(ptr noundef nonnull align 8 dereferenceable(8) %9) #13
  br label %27

27:                                               ; preds = %25, %23
  %.pn = phi { ptr, i32 } [ %26, %25 ], [ %24, %23 ]
  call void @_ZN15QGraphicsObjectD2Ev(ptr noundef nonnull align 8 dereferenceable(32) %0) #13
  resume { ptr, i32 } %.pn
}